ccopy_reg
_reconstructor
p0
(cgeometry_msgs.msg._PoseStamped
PoseStamped
p1
c__builtin__
object
p2
Ntp3
Rp4
(lp5
g0
(cstd_msgs.msg._Header
Header
p6
g2
Ntp7
Rp8
(lp9
I1
ag0
(cgenpy.rostime
Time
p10
g2
Ntp11
Rp12
(lp13
I1440972195
aI994653940
abaS'left_BC'
p14
abag0
(cgeometry_msgs.msg._Pose
Pose
p15
g2
Ntp16
Rp17
(lp18
g0
(cgeometry_msgs.msg._Point
Point
p19
g2
Ntp20
Rp21
(lp22
F720.2084753588216
aF615.7791872300476
aF0.31718875994077983
abag0
(cgeometry_msgs.msg._Quaternion
Quaternion
p23
g2
Ntp24
Rp25
(lp26
F0.9098215484319179
aF0.015636255405732876
aF-0.03286125360098153
aF0.4134010141979182
ababab.