ccopy_reg
_reconstructor
p0
(cgeometry_msgs.msg._PoseStamped
PoseStamped
p1
c__builtin__
object
p2
Ntp3
Rp4
(lp5
g0
(cstd_msgs.msg._Header
Header
p6
g2
Ntp7
Rp8
(lp9
I3097
ag0
(cgenpy.rostime
Time
p10
g2
Ntp11
Rp12
(lp13
I1440980695
aI611784934
abaS'left_BC'
p14
abag0
(cgeometry_msgs.msg._Pose
Pose
p15
g2
Ntp16
Rp17
(lp18
g0
(cgeometry_msgs.msg._Point
Point
p19
g2
Ntp20
Rp21
(lp22
F0.030788423711093457
aF0.03785090932690664
aF0.3167672675456647
abag0
(cgeometry_msgs.msg._Quaternion
Quaternion
p23
g2
Ntp24
Rp25
(lp26
F-0.013020304924641294
aF0.9140722456791104
aF-0.4033115182333176
aF-0.040524343285615785
ababab.