ccopy_reg
_reconstructor
p0
(cgeometry_msgs.msg._PoseStamped
PoseStamped
p1
c__builtin__
object
p2
Ntp3
Rp4
(lp5
g0
(cstd_msgs.msg._Header
Header
p6
g2
Ntp7
Rp8
(lp9
I185
ag0
(cgenpy.rostime
Time
p10
g2
Ntp11
Rp12
(lp13
I1440798062
aI291604042
abaS'left_BC'
p14
abag0
(cgeometry_msgs.msg._Pose
Pose
p15
g2
Ntp16
Rp17
(lp18
g0
(cgeometry_msgs.msg._Point
Point
p19
g2
Ntp20
Rp21
(lp22
F0.03211395496026082
aF0.03816156602688626
aF0.31714616553944514
abag0
(cgeometry_msgs.msg._Quaternion
Quaternion
p23
g2
Ntp24
Rp25
(lp26
F-0.014116428580407705
aF0.9121805540216159
aF-0.4075795492582036
aF-0.04007831918650537
ababab.