(lp0
(lp1
I5
aI5
aa(lp2
ccopy_reg
_reconstructor
p3
(cgeometry_msgs.msg._PoseStamped
PoseStamped
p4
c__builtin__
object
p5
Ntp6
Rp7
(lp8
g3
(cstd_msgs.msg._Header
Header
p9
g5
Ntp10
Rp11
(lp12
I9439962
ag3
(cgenpy.rostime
Time
p13
g5
Ntp14
Rp15
(lp16
I1440558963
aI349395240
abaS'/one_remote_center_link'
p17
abag3
(cgeometry_msgs.msg._Pose
Pose
p18
g5
Ntp19
Rp20
(lp21
g3
(cgeometry_msgs.msg._Point
Point
p22
g5
Ntp23
Rp24
(lp25
F-0.07334636989432052
aF0.0050808427158317414
aF-0.18690024524210408
abag3
(cgeometry_msgs.msg._Quaternion
Quaternion
p26
g5
Ntp27
Rp28
(lp29
F0.09190372534576881
aF0.9909374350028991
aF0.04442624706038258
aF0.08730987200525726
abababag3
(g4
g5
Ntp30
Rp31
(lp32
g3
(g9
g5
Ntp33
Rp34
(lp35
I9486066
ag3
(g13
g5
Ntp36
Rp37
(lp38
I1440559058
aI170457264
abaS'/one_remote_center_link'
p39
abag3
(g18
g5
Ntp40
Rp41
(lp42
g3
(g22
g5
Ntp43
Rp44
(lp45
F-0.08932193307937496
aF0.0025950738412469703
aF-0.1888072968269923
abag3
(g26
g5
Ntp46
Rp47
(lp48
F0.10998934395990467
aF0.9911676736107785
aF0.03145564618858525
aF0.06707853104478032
abababag3
(g4
g5
Ntp49
Rp50
(lp51
g3
(g9
g5
Ntp52
Rp53
(lp54
I9544634
ag3
(g13
g5
Ntp55
Rp56
(lp57
I1440559178
aI712111616
abaS'/one_remote_center_link'
p58
abag3
(g18
g5
Ntp59
Rp60
(lp61
g3
(g22
g5
Ntp62
Rp63
(lp64
F-0.09499618334313785
aF0.010879814691856187
aF-0.19145117074428133
abag3
(g26
g5
Ntp65
Rp66
(lp67
F-0.0025019389683452404
aF0.9932653307617246
aF0.07294496856869206
aF0.0899819680197811
abababag3
(g4
g5
Ntp68
Rp69
(lp70
g3
(g9
g5
Ntp71
Rp72
(lp73
I9557321
ag3
(g13
g5
Ntp74
Rp75
(lp76
I1440559204
aI809711666
abaS'/one_remote_center_link'
p77
abag3
(g18
g5
Ntp78
Rp79
(lp80
g3
(g22
g5
Ntp81
Rp82
(lp83
F-0.11152143565053203
aF0.011450901064680831
aF-0.19357449416131214
abag3
(g26
g5
Ntp84
Rp85
(lp86
F0.08681616264960501
aF0.9874578775592521
aF0.10317529348166411
aF0.08212644375563244
abababag3
(g4
g5
Ntp87
Rp88
(lp89
g3
(g9
g5
Ntp90
Rp91
(lp92
I9581189
ag3
(g13
g5
Ntp93
Rp94
(lp95
I1440559253
aI967070971
abaS'/one_remote_center_link'
p96
abag3
(g18
g5
Ntp97
Rp98
(lp99
g3
(g22
g5
Ntp100
Rp101
(lp102
F-0.11960683962468135
aF0.012450915441362257
aF-0.1996942040608533
abag3
(g26
g5
Ntp103
Rp104
(lp105
F0.07786539764060624
aF0.993397443931629
aF0.022932129239060513
aF0.0810716700761713
abababag3
(g4
g5
Ntp106
Rp107
(lp108
g3
(g9
g5
Ntp109
Rp110
(lp111
I9600605
ag3
(g13
g5
Ntp112
Rp113
(lp114
I1440559293
aI934326804
abaS'/one_remote_center_link'
p115
abag3
(g18
g5
Ntp116
Rp117
(lp118
g3
(g22
g5
Ntp119
Rp120
(lp121
F-0.07240134679317053
aF0.018249137611568912
aF-0.18545204421712708
abag3
(g26
g5
Ntp122
Rp123
(lp124
F0.024627513153660165
aF0.9933274408252097
aF0.042513484493137264
aF0.10433927609370144
abababag3
(g4
g5
Ntp125
Rp126
(lp127
g3
(g9
g5
Ntp128
Rp129
(lp130
I9607186
ag3
(g13
g5
Ntp131
Rp132
(lp133
I1440559307
aI474312307
abaS'/one_remote_center_link'
p134
abag3
(g18
g5
Ntp135
Rp136
(lp137
g3
(g22
g5
Ntp138
Rp139
(lp140
F-0.08513484893343849
aF0.019115190843256743
aF-0.18805027568111388
abag3
(g26
g5
Ntp141
Rp142
(lp143
F0.08854646293441067
aF0.9913693047610552
aF0.023945725049007355
aF0.09366444219267128
abababag3
(g4
g5
Ntp144
Rp145
(lp146
g3
(g9
g5
Ntp147
Rp148
(lp149
I9614530
ag3
(g13
g5
Ntp150
Rp151
(lp152
I1440559322
aI614751955
abaS'/one_remote_center_link'
p153
abag3
(g18
g5
Ntp154
Rp155
(lp156
g3
(g22
g5
Ntp157
Rp158
(lp159
F-0.09425364811947481
aF0.021242452198984196
aF-0.19206540208615394
abag3
(g26
g5
Ntp160
Rp161
(lp162
F0.09711717164238566
aF0.9877511495931118
aF0.025946116908267765
aF0.11934286935989112
abababag3
(g4
g5
Ntp163
Rp164
(lp165
g3
(g9
g5
Ntp166
Rp167
(lp168
I9621675
ag3
(g13
g5
Ntp169
Rp170
(lp171
I1440559337
aI323079753
abaS'/one_remote_center_link'
p172
abag3
(g18
g5
Ntp173
Rp174
(lp175
g3
(g22
g5
Ntp176
Rp177
(lp178
F-0.10619612146535437
aF0.023258354432270797
aF-0.19465397159394426
abag3
(g26
g5
Ntp179
Rp180
(lp181
F0.1044186280137965
aF0.9902642698377574
aF0.03357616009089174
aF0.0857092030062153
abababag3
(g4
g5
Ntp182
Rp183
(lp184
g3
(g9
g5
Ntp185
Rp186
(lp187
I9641793
ag3
(g13
g5
Ntp188
Rp189
(lp190
I1440559378
aI742778627
abaS'/one_remote_center_link'
p191
abag3
(g18
g5
Ntp192
Rp193
(lp194
g3
(g22
g5
Ntp195
Rp196
(lp197
F-0.1207167542796414
aF0.025271736731629413
aF-0.1973433679151304
abag3
(g26
g5
Ntp198
Rp199
(lp200
F0.14810879115586345
aF0.9856887118092617
aF0.01432413067824828
aF0.07922353611433715
abababag3
(g4
g5
Ntp201
Rp202
(lp203
g3
(g9
g5
Ntp204
Rp205
(lp206
I9666109
ag3
(g13
g5
Ntp207
Rp208
(lp209
I1440559428
aI816197076
abaS'/one_remote_center_link'
p210
abag3
(g18
g5
Ntp211
Rp212
(lp213
g3
(g22
g5
Ntp214
Rp215
(lp216
F-0.06794123927635524
aF0.02959478919347989
aF-0.18467973926235395
abag3
(g26
g5
Ntp217
Rp218
(lp219
F0.06136220579618615
aF0.993124302219862
aF0.008093223895664917
aF0.09936447940342345
abababag3
(g4
g5
Ntp220
Rp221
(lp222
g3
(g9
g5
Ntp223
Rp224
(lp225
I9673020
ag3
(g13
g5
Ntp226
Rp227
(lp228
I1440559443
aI43311197
abaS'/one_remote_center_link'
p229
abag3
(g18
g5
Ntp230
Rp231
(lp232
g3
(g22
g5
Ntp233
Rp234
(lp235
F-0.08031221276220901
aF0.0320773576624515
aF-0.1881261996587991
abag3
(g26
g5
Ntp236
Rp237
(lp238
F0.0824041294409793
aF0.9934038942375033
aF0.021562433267743927
aF0.07676798705457784
abababag3
(g4
g5
Ntp239
Rp240
(lp241
g3
(g9
g5
Ntp242
Rp243
(lp244
I9700616
ag3
(g13
g5
Ntp245
Rp246
(lp247
I1440559499
aI875669922
abaS'/one_remote_center_link'
p248
abag3
(g18
g5
Ntp249
Rp250
(lp251
g3
(g22
g5
Ntp252
Rp253
(lp254
F-0.0904965767848642
aF0.03287015721148025
aF-0.19265872114425897
abag3
(g26
g5
Ntp255
Rp256
(lp257
F0.04828623506751701
aF0.9938202200704286
aF0.028705551149838072
aF0.09573818995235671
abababag3
(g4
g5
Ntp258
Rp259
(lp260
g3
(g9
g5
Ntp261
Rp262
(lp263
I9707130
ag3
(g13
g5
Ntp264
Rp265
(lp266
I1440559513
aI302983173
abaS'/one_remote_center_link'
p267
abag3
(g18
g5
Ntp268
Rp269
(lp270
g3
(g22
g5
Ntp271
Rp272
(lp273
F-0.1052291950752752
aF0.03613906128222939
aF-0.1934004448405966
abag3
(g26
g5
Ntp274
Rp275
(lp276
F0.1235867345141827
aF0.9847212004668063
aF0.02106022514815495
aF0.12085918798354531
abababag3
(g4
g5
Ntp277
Rp278
(lp279
g3
(g9
g5
Ntp280
Rp281
(lp282
I9713047
ag3
(g13
g5
Ntp283
Rp284
(lp285
I1440559525
aI469633533
abaS'/one_remote_center_link'
p286
abag3
(g18
g5
Ntp287
Rp288
(lp289
g3
(g22
g5
Ntp290
Rp291
(lp292
F-0.1126174008137151
aF0.03542205231309224
aF-0.1959965466482309
abag3
(g26
g5
Ntp293
Rp294
(lp295
F0.06517179887692426
aF0.9945118646131328
aF-0.006769775059283019
aF0.08156566630943762
abababag3
(g4
g5
Ntp296
Rp297
(lp298
g3
(g9
g5
Ntp299
Rp300
(lp301
I9720599
ag3
(g13
g5
Ntp302
Rp303
(lp304
I1440559541
aI38327122
abaS'/one_remote_center_link'
p305
abag3
(g18
g5
Ntp306
Rp307
(lp308
g3
(g22
g5
Ntp309
Rp310
(lp311
F-0.06746967190360433
aF0.04209390198946392
aF-0.18325467663468997
abag3
(g26
g5
Ntp312
Rp313
(lp314
F0.09261022410770542
aF0.9915571205938083
aF0.0033435862684361877
aF0.09070084575847169
abababag3
(g4
g5
Ntp315
Rp316
(lp317
g3
(g9
g5
Ntp318
Rp319
(lp320
I9730969
ag3
(g13
g5
Ntp321
Rp322
(lp323
I1440559562
aI379232436
abaS'/one_remote_center_link'
p324
abag3
(g18
g5
Ntp325
Rp326
(lp327
g3
(g22
g5
Ntp328
Rp329
(lp330
F-0.07913094830137847
aF0.044131898573483506
aF-0.18713313008845855
abag3
(g26
g5
Ntp331
Rp332
(lp333
F0.09848477169304969
aF0.9908400458776958
aF0.029636117474081417
aF0.08751259206946176
abababag3
(g4
g5
Ntp334
Rp335
(lp336
g3
(g9
g5
Ntp337
Rp338
(lp339
I9743351
ag3
(g13
g5
Ntp340
Rp341
(lp342
I1440559587
aI910361126
abaS'/one_remote_center_link'
p343
abag3
(g18
g5
Ntp344
Rp345
(lp346
g3
(g22
g5
Ntp347
Rp348
(lp349
F-0.0898226227961066
aF0.04720556244904343
aF-0.190111022165771
abag3
(g26
g5
Ntp350
Rp351
(lp352
F0.09809625771712055
aF0.9900260464017819
aF0.00309743704806289
aF0.1010740201618911
abababag3
(g4
g5
Ntp353
Rp354
(lp355
g3
(g9
g5
Ntp356
Rp357
(lp358
I9750609
ag3
(g13
g5
Ntp359
Rp360
(lp361
I1440559602
aI885819542
abaS'/one_remote_center_link'
p362
abag3
(g18
g5
Ntp363
Rp364
(lp365
g3
(g22
g5
Ntp366
Rp367
(lp368
F-0.1032013625406543
aF0.05025855300220114
aF-0.19230634475600045
abag3
(g26
g5
Ntp369
Rp370
(lp371
F0.13946469022366131
aF0.9842185978645948
aF0.01136646394082983
aF0.10832430611709976
abababag3
(g4
g5
Ntp372
Rp373
(lp374
g3
(g9
g5
Ntp375
Rp376
(lp377
I9760290
ag3
(g13
g5
Ntp378
Rp379
(lp380
I1440559622
aI797890416
abaS'/one_remote_center_link'
p381
abag3
(g18
g5
Ntp382
Rp383
(lp384
g3
(g22
g5
Ntp385
Rp386
(lp387
F-0.1154954289270197
aF0.051230662745708214
aF-0.1950505746152721
abag3
(g26
g5
Ntp388
Rp389
(lp390
F0.11586407231567257
aF0.988763210311318
aF0.009765338206412804
aF0.09395461058936663
abababag3
(g4
g5
Ntp391
Rp392
(lp393
g3
(g9
g5
Ntp394
Rp395
(lp396
I9773228
ag3
(g13
g5
Ntp397
Rp398
(lp399
I1440559649
aI415977178
abaS'/one_remote_center_link'
p400
abag3
(g18
g5
Ntp401
Rp402
(lp403
g3
(g22
g5
Ntp404
Rp405
(lp406
F-0.06566729284231983
aF0.05232229552650328
aF-0.1833836200176588
abag3
(g26
g5
Ntp407
Rp408
(lp409
F0.03589048861414266
aF0.9951948092211772
aF0.029096278145663762
aF0.08632827534668486
abababag3
(g4
g5
Ntp410
Rp411
(lp412
g3
(g9
g5
Ntp413
Rp414
(lp415
I9787956
ag3
(g13
g5
Ntp416
Rp417
(lp418
I1440559679
aI730750169
abaS'/one_remote_center_link'
p419
abag3
(g18
g5
Ntp420
Rp421
(lp422
g3
(g22
g5
Ntp423
Rp424
(lp425
F-0.08004922871387077
aF0.054740224083182215
aF-0.18552837561257754
abag3
(g26
g5
Ntp426
Rp427
(lp428
F0.06952428438529955
aF0.994279785956412
aF0.040966173677459486
aF0.06997037754229915
abababag3
(g4
g5
Ntp429
Rp430
(lp431
g3
(g9
g5
Ntp432
Rp433
(lp434
I9804201
ag3
(g13
g5
Ntp435
Rp436
(lp437
I1440559713
aI169992358
abaS'/one_remote_center_link'
p438
abag3
(g18
g5
Ntp439
Rp440
(lp441
g3
(g22
g5
Ntp442
Rp443
(lp444
F-0.08348436694697572
aF0.06134000172186566
aF-0.19024276317192623
abag3
(g26
g5
Ntp445
Rp446
(lp447
F0.0885372770859558
aF0.9860701416287723
aF0.052186095966034
aF0.13078011218163746
abababag3
(g4
g5
Ntp448
Rp449
(lp450
g3
(g9
g5
Ntp451
Rp452
(lp453
I9822752
ag3
(g13
g5
Ntp454
Rp455
(lp456
I1440559751
aI324405200
abaS'/one_remote_center_link'
p457
abag3
(g18
g5
Ntp458
Rp459
(lp460
g3
(g22
g5
Ntp461
Rp462
(lp463
F-0.09747991610954218
aF0.06274483453825377
aF-0.19364782357723057
abag3
(g26
g5
Ntp464
Rp465
(lp466
F0.09182926172826993
aF0.9902736501854771
aF0.019027988573421608
aF0.1027785001331607
abababag3
(g4
g5
Ntp467
Rp468
(lp469
g3
(g9
g5
Ntp470
Rp471
(lp472
I9834162
ag3
(g13
g5
Ntp473
Rp474
(lp475
I1440559774
aI833276903
abaS'/one_remote_center_link'
p476
abag3
(g18
g5
Ntp477
Rp478
(lp479
g3
(g22
g5
Ntp480
Rp481
(lp482
F-0.11252306505498974
aF0.06439641445894174
aF-0.1930409923002674
abag3
(g26
g5
Ntp483
Rp484
(lp485
F0.1548728219223932
aF0.9830111378703152
aF0.027696859577158398
aF0.0945325119853802
abababaa.