(lp0
(lp1
I5
aI5
aa(lp2
ccopy_reg
_reconstructor
p3
(cgeometry_msgs.msg._PoseStamped
PoseStamped
p4
c__builtin__
object
p5
Ntp6
Rp7
(lp8
g3
(cstd_msgs.msg._Header
Header
p9
g5
Ntp10
Rp11
(lp12
I1514936
ag3
(cgenpy.rostime
Time
p13
g5
Ntp14
Rp15
(lp16
I1440968839
aI774099207
abaS'/two_remote_center_link'
p17
abag3
(cgeometry_msgs.msg._Pose
Pose
p18
g5
Ntp19
Rp20
(lp21
g3
(cgeometry_msgs.msg._Point
Point
p22
g5
Ntp23
Rp24
(lp25
F0.13764994124690427
aF-0.0024809344261023515
aF-0.1636229252255343
abag3
(cgeometry_msgs.msg._Quaternion
Quaternion
p26
g5
Ntp27
Rp28
(lp29
F0.9905966282181285
aF-0.07306804536302773
aF-0.009946172398989754
aF-0.11524085457992207
abababag3
(g4
g5
Ntp30
Rp31
(lp32
g3
(g9
g5
Ntp33
Rp34
(lp35
I1547323
ag3
(g13
g5
Ntp36
Rp37
(lp38
I1440968906
aI586128407
abaS'/two_remote_center_link'
p39
abag3
(g18
g5
Ntp40
Rp41
(lp42
g3
(g22
g5
Ntp43
Rp44
(lp45
F0.12406905148260246
aF-0.0008794110629132984
aF-0.16410114161494097
abag3
(g26
g5
Ntp46
Rp47
(lp48
F0.9773131596793899
aF-0.08116443959237833
aF-0.06442292546748433
aF-0.18471872763029076
abababag3
(g4
g5
Ntp49
Rp50
(lp51
g3
(g9
g5
Ntp52
Rp53
(lp54
I1622882
ag3
(g13
g5
Ntp55
Rp56
(lp57
I1440969062
aI422442284
abaS'/two_remote_center_link'
p58
abag3
(g18
g5
Ntp59
Rp60
(lp61
g3
(g22
g5
Ntp62
Rp63
(lp64
F0.11143357885375295
aF-0.007381937579520342
aF-0.1623604099933074
abag3
(g26
g5
Ntp65
Rp66
(lp67
F0.9930517746121934
aF-0.08421035055416251
aF-0.04519323559800211
aF-0.068661206334451
abababag3
(g4
g5
Ntp68
Rp69
(lp70
g3
(g9
g5
Ntp71
Rp72
(lp73
I1628375
ag3
(g13
g5
Ntp74
Rp75
(lp76
I1440969073
aI750958552
abaS'/two_remote_center_link'
p77
abag3
(g18
g5
Ntp78
Rp79
(lp80
g3
(g22
g5
Ntp81
Rp82
(lp83
F0.09742241652208825
aF-0.008045584387050221
aF-0.16216406745635933
abag3
(g26
g5
Ntp84
Rp85
(lp86
F0.992575074749527
aF-0.09018689445551144
aF-0.03910469111947976
aF-0.07163705875377196
abababag3
(g4
g5
Ntp87
Rp88
(lp89
g3
(g9
g5
Ntp90
Rp91
(lp92
I1641581
ag3
(g13
g5
Ntp93
Rp94
(lp95
I1440969100
aI995739751
abaS'/two_remote_center_link'
p96
abag3
(g18
g5
Ntp97
Rp98
(lp99
g3
(g22
g5
Ntp100
Rp101
(lp102
F0.0877811649141055
aF-0.009828327120437253
aF-0.162290889058815
abag3
(g26
g5
Ntp103
Rp104
(lp105
F0.9886249837736882
aF-0.09393057325848837
aF0.018883976201908924
aF-0.11593569040037802
abababag3
(g4
g5
Ntp106
Rp107
(lp108
g3
(g9
g5
Ntp109
Rp110
(lp111
I1656067
ag3
(g13
g5
Ntp112
Rp113
(lp114
I1440969130
aI882597930
abaS'/two_remote_center_link'
p115
abag3
(g18
g5
Ntp116
Rp117
(lp118
g3
(g22
g5
Ntp119
Rp120
(lp121
F0.13671633312759843
aF0.01111963351098268
aF-0.16461795932161613
abag3
(g26
g5
Ntp122
Rp123
(lp124
F0.9857551760563787
aF-0.05355833480318534
aF-0.03856765158397052
aF-0.15469574623261406
abababag3
(g4
g5
Ntp125
Rp126
(lp127
g3
(g9
g5
Ntp128
Rp129
(lp130
I1668037
ag3
(g13
g5
Ntp131
Rp132
(lp133
I1440969155
aI562250829
abaS'/two_remote_center_link'
p134
abag3
(g18
g5
Ntp135
Rp136
(lp137
g3
(g22
g5
Ntp138
Rp139
(lp140
F0.1261454684903219
aF0.0065448254659216795
aF-0.16341756975457217
abag3
(g26
g5
Ntp141
Rp142
(lp143
F0.9972041047369046
aF-0.06036238119853335
aF-0.012729868010721098
aF-0.042169976195645
abababag3
(g4
g5
Ntp144
Rp145
(lp146
g3
(g9
g5
Ntp147
Rp148
(lp149
I1715492
ag3
(g13
g5
Ntp150
Rp151
(lp152
I1440969253
aI448318559
abaS'/two_remote_center_link'
p153
abag3
(g18
g5
Ntp154
Rp155
(lp156
g3
(g22
g5
Ntp157
Rp158
(lp159
F0.10863993843830728
aF0.005699384481368004
aF-0.1650186251174607
abag3
(g26
g5
Ntp160
Rp161
(lp162
F0.9971451536650746
aF-0.06975938443970423
aF0.00468254032653206
aF-0.028517444151586115
abababag3
(g4
g5
Ntp163
Rp164
(lp165
g3
(g9
g5
Ntp166
Rp167
(lp168
I1724773
ag3
(g13
g5
Ntp169
Rp170
(lp171
I1440969272
aI590379774
abaS'/two_remote_center_link'
p172
abag3
(g18
g5
Ntp173
Rp174
(lp175
g3
(g22
g5
Ntp176
Rp177
(lp178
F0.09578412394482753
aF0.007181826321268705
aF-0.16312153781389005
abag3
(g26
g5
Ntp179
Rp180
(lp181
F0.9901313457247475
aF-0.06790575760989895
aF-0.046646336929189555
aF-0.11337039096613646
abababag3
(g4
g5
Ntp182
Rp183
(lp184
g3
(g9
g5
Ntp185
Rp186
(lp187
I1730115
ag3
(g13
g5
Ntp188
Rp189
(lp190
I1440969283
aI598285941
abaS'/two_remote_center_link'
p191
abag3
(g18
g5
Ntp192
Rp193
(lp194
g3
(g22
g5
Ntp195
Rp196
(lp197
F0.08569144420884671
aF0.004320032717547318
aF-0.16082067933283634
abag3
(g26
g5
Ntp198
Rp199
(lp200
F0.9886946185725736
aF-0.07556145508870075
aF-0.056575368076804244
aF-0.1165016971442298
abababag3
(g4
g5
Ntp201
Rp202
(lp203
g3
(g9
g5
Ntp204
Rp205
(lp206
I1752371
ag3
(g13
g5
Ntp207
Rp208
(lp209
I1440969329
aI486872578
abaS'/two_remote_center_link'
p210
abag3
(g18
g5
Ntp211
Rp212
(lp213
g3
(g22
g5
Ntp214
Rp215
(lp216
F0.13516122593661375
aF0.026989992479702785
aF-0.16272798280742323
abag3
(g26
g5
Ntp217
Rp218
(lp219
F0.985855623725504
aF-0.025710218689607187
aF-0.026306181062062443
aF-0.16351042370949995
abababag3
(g4
g5
Ntp220
Rp221
(lp222
g3
(g9
g5
Ntp223
Rp224
(lp225
I1763702
ag3
(g13
g5
Ntp226
Rp227
(lp228
I1440969352
aI848604622
abaS'/two_remote_center_link'
p229
abag3
(g18
g5
Ntp230
Rp231
(lp232
g3
(g22
g5
Ntp233
Rp234
(lp235
F0.12169846911902935
aF0.018524715935056564
aF-0.16356737988779455
abag3
(g26
g5
Ntp236
Rp237
(lp238
F0.9980937379054936
aF-0.038739618425070635
aF-0.030989789866788017
aF-0.03671192234318505
abababag3
(g4
g5
Ntp239
Rp240
(lp241
g3
(g9
g5
Ntp242
Rp243
(lp244
I1770608
ag3
(g13
g5
Ntp245
Rp246
(lp247
I1440969367
aI79915044
abaS'/two_remote_center_link'
p248
abag3
(g18
g5
Ntp249
Rp250
(lp251
g3
(g22
g5
Ntp252
Rp253
(lp254
F0.10736483636688489
aF0.019111453356584346
aF-0.1617616157269398
abag3
(g26
g5
Ntp255
Rp256
(lp257
F0.9950596458342399
aF-0.039761057639700614
aF-0.04981249774034453
aF-0.07611881893774783
abababag3
(g4
g5
Ntp258
Rp259
(lp260
g3
(g9
g5
Ntp261
Rp262
(lp263
I1776342
ag3
(g13
g5
Ntp264
Rp265
(lp266
I1440969378
aI900539720
abaS'/two_remote_center_link'
p267
abag3
(g18
g5
Ntp268
Rp269
(lp270
g3
(g22
g5
Ntp271
Rp272
(lp273
F0.09389337853333392
aF0.01666873744852362
aF-0.16134878132287978
abag3
(g26
g5
Ntp274
Rp275
(lp276
F0.9973440049026547
aF-0.04890454573414315
aF-0.035577651863938534
aF-0.04058955504953007
abababag3
(g4
g5
Ntp277
Rp278
(lp279
g3
(g9
g5
Ntp280
Rp281
(lp282
I1785298
ag3
(g13
g5
Ntp283
Rp284
(lp285
I1440969397
aI363681138
abaS'/two_remote_center_link'
p286
abag3
(g18
g5
Ntp287
Rp288
(lp289
g3
(g22
g5
Ntp290
Rp291
(lp292
F0.08118897306724632
aF0.016976016437246555
aF-0.16215901853306317
abag3
(g26
g5
Ntp293
Rp294
(lp295
F0.9973847179019844
aF-0.052318690992248784
aF-0.03748408503492626
aF-0.03288498802692799
abababag3
(g4
g5
Ntp296
Rp297
(lp298
g3
(g9
g5
Ntp299
Rp300
(lp301
I1803197
ag3
(g13
g5
Ntp302
Rp303
(lp304
I1440969434
aI264502294
abaS'/two_remote_center_link'
p305
abag3
(g18
g5
Ntp306
Rp307
(lp308
g3
(g22
g5
Ntp309
Rp310
(lp311
F0.13239995304837274
aF0.03843309835146758
aF-0.16399267935503425
abag3
(g26
g5
Ntp312
Rp313
(lp314
F0.9891208573050243
aF-0.008127272800949124
aF-0.018316770653237183
aF-0.1457339116123263
abababag3
(g4
g5
Ntp315
Rp316
(lp317
g3
(g9
g5
Ntp318
Rp319
(lp320
I1817559
ag3
(g13
g5
Ntp321
Rp322
(lp323
I1440969463
aI886391946
abaS'/two_remote_center_link'
p324
abag3
(g18
g5
Ntp325
Rp326
(lp327
g3
(g22
g5
Ntp328
Rp329
(lp330
F0.11525347119516208
aF0.03195149945420732
aF-0.16804627131759486
abag3
(g26
g5
Ntp331
Rp332
(lp333
F0.994668537579046
aF-0.037889193651425665
aF-0.017282639406509422
aF-0.09434097587978969
abababag3
(g4
g5
Ntp334
Rp335
(lp336
g3
(g9
g5
Ntp337
Rp338
(lp339
I1832215
ag3
(g13
g5
Ntp340
Rp341
(lp342
I1440969494
aI105445927
abaS'/two_remote_center_link'
p343
abag3
(g18
g5
Ntp344
Rp345
(lp346
g3
(g22
g5
Ntp347
Rp348
(lp349
F0.10432173468850245
aF0.03178909097708869
aF-0.1640686727219231
abag3
(g26
g5
Ntp350
Rp351
(lp352
F0.9809156504571503
aF-0.03041945453696599
aF-0.04628855977953534
aF-0.18637733957602143
abababag3
(g4
g5
Ntp353
Rp354
(lp355
g3
(g9
g5
Ntp356
Rp357
(lp358
I1840612
ag3
(g13
g5
Ntp359
Rp360
(lp361
I1440969511
aI425461499
abaS'/two_remote_center_link'
p362
abag3
(g18
g5
Ntp363
Rp364
(lp365
g3
(g22
g5
Ntp366
Rp367
(lp368
F0.08754559375072726
aF0.03396753463006198
aF-0.16284760744544496
abag3
(g26
g5
Ntp369
Rp370
(lp371
F0.9842401164817427
aF-0.027715872490103845
aF-0.06374326838217585
aF-0.16260387220504904
abababag3
(g4
g5
Ntp372
Rp373
(lp374
g3
(g9
g5
Ntp375
Rp376
(lp377
I1859377
ag3
(g13
g5
Ntp378
Rp379
(lp380
I1440969550
aI128546268
abaS'/two_remote_center_link'
p381
abag3
(g18
g5
Ntp382
Rp383
(lp384
g3
(g22
g5
Ntp385
Rp386
(lp387
F0.08030690892532977
aF0.029595847122775253
aF-0.16195799509981446
abag3
(g26
g5
Ntp388
Rp389
(lp390
F0.9883615378435515
aF-0.04437083901571303
aF-0.00490847983948289
aF-0.14542560291171955
abababag3
(g4
g5
Ntp391
Rp392
(lp393
g3
(g9
g5
Ntp394
Rp395
(lp396
I1896621
ag3
(g13
g5
Ntp397
Rp398
(lp399
I1440969626
aI937411949
abaS'/two_remote_center_link'
p400
abag3
(g18
g5
Ntp401
Rp402
(lp403
g3
(g22
g5
Ntp404
Rp405
(lp406
F0.13084664532835855
aF0.04628674550222604
aF-0.16422504946170943
abag3
(g26
g5
Ntp407
Rp408
(lp409
F0.9964911137301926
aF0.0071637506448393885
aF-0.04220755830054262
aF-0.07192122743505802
abababag3
(g4
g5
Ntp410
Rp411
(lp412
g3
(g9
g5
Ntp413
Rp414
(lp415
I1902864
ag3
(g13
g5
Ntp416
Rp417
(lp418
I1440969639
aI818578624
abaS'/two_remote_center_link'
p419
abag3
(g18
g5
Ntp420
Rp421
(lp422
g3
(g22
g5
Ntp423
Rp424
(lp425
F0.11838936250942635
aF0.04434633211592127
aF-0.1613440867840048
abag3
(g26
g5
Ntp426
Rp427
(lp428
F0.9976208209596628
aF0.007732844596339592
aF-0.04657077347957507
aF-0.0502400613030227
abababag3
(g4
g5
Ntp429
Rp430
(lp431
g3
(g9
g5
Ntp432
Rp433
(lp434
I1908433
ag3
(g13
g5
Ntp435
Rp436
(lp437
I1440969651
aI302749530
abaS'/two_remote_center_link'
p438
abag3
(g18
g5
Ntp439
Rp440
(lp441
g3
(g22
g5
Ntp442
Rp443
(lp444
F0.10635776638220817
aF0.04352032215413897
aF-0.16224761564582674
abag3
(g26
g5
Ntp445
Rp446
(lp447
F0.9950485005619921
aF-0.07761165242473377
aF-0.0255864633063086
aF-0.056570715327885907
abababag3
(g4
g5
Ntp448
Rp449
(lp450
g3
(g9
g5
Ntp451
Rp452
(lp453
I1914900
ag3
(g13
g5
Ntp454
Rp455
(lp456
I1440969664
aI639722632
abaS'/two_remote_center_link'
p457
abag3
(g18
g5
Ntp458
Rp459
(lp460
g3
(g22
g5
Ntp461
Rp462
(lp463
F0.09505190458198311
aF0.040955373525796354
aF-0.16049740079953814
abag3
(g26
g5
Ntp464
Rp465
(lp466
F0.9988436153482971
aF-0.012521874277781198
aF-0.024727798807650525
aF-0.039283211536773194
abababag3
(g4
g5
Ntp467
Rp468
(lp469
g3
(g9
g5
Ntp470
Rp471
(lp472
I1920089
ag3
(g13
g5
Ntp473
Rp474
(lp475
I1440969675
aI341480683
abaS'/two_remote_center_link'
p476
abag3
(g18
g5
Ntp477
Rp478
(lp479
g3
(g22
g5
Ntp480
Rp481
(lp482
F0.08070893503003557
aF0.04032741459407992
aF-0.1603647986932593
abag3
(g26
g5
Ntp483
Rp484
(lp485
F0.9979157760222627
aF-0.014614755040318016
aF-0.04496133180960949
aF-0.04392028623430324
abababaa.