(lp0
(lp1
I3
aI3
aa(lp2
ccopy_reg
_reconstructor
p3
(cgeometry_msgs.msg._PoseStamped
PoseStamped
p4
c__builtin__
object
p5
Ntp6
Rp7
(lp8
g3
(cstd_msgs.msg._Header
Header
p9
g5
Ntp10
Rp11
(lp12
I571487
ag3
(cgenpy.rostime
Time
p13
g5
Ntp14
Rp15
(lp16
I1440024186
aI534461424
abaS'/two_remote_center_link'
p17
abag3
(cgeometry_msgs.msg._Pose
Pose
p18
g5
Ntp19
Rp20
(lp21
g3
(cgeometry_msgs.msg._Point
Point
p22
g5
Ntp23
Rp24
(lp25
F0.10793805834962869
aF0.013207213433367688
aF-0.1616078958919505
abag3
(cgeometry_msgs.msg._Quaternion
Quaternion
p26
g5
Ntp27
Rp28
(lp29
F0.9941037822357823
aF-0.05460499248635729
aF0.017140072272280635
aF-0.09209876688956366
abababag3
(g4
g5
Ntp30
Rp31
(lp32
g3
(g9
g5
Ntp33
Rp34
(lp35
I580873
ag3
(g13
g5
Ntp36
Rp37
(lp38
I1440024205
aI872762282
abaS'/two_remote_center_link'
p39
abag3
(g18
g5
Ntp40
Rp41
(lp42
g3
(g22
g5
Ntp43
Rp44
(lp45
F0.09384223403656768
aF0.011680373849380988
aF-0.1604426951702816
abag3
(g26
g5
Ntp46
Rp47
(lp48
F0.9847464303691095
aF-0.0614490901602228
aF0.027764237418858317
aF-0.1603983301481866
abababag3
(g4
g5
Ntp49
Rp50
(lp51
g3
(g9
g5
Ntp52
Rp53
(lp54
I590287
ag3
(g13
g5
Ntp55
Rp56
(lp57
I1440024225
aI264161286
abaS'/two_remote_center_link'
p58
abag3
(g18
g5
Ntp59
Rp60
(lp61
g3
(g22
g5
Ntp62
Rp63
(lp64
F0.08346544689993778
aF0.012699187673460394
aF-0.1582948219494793
abag3
(g26
g5
Ntp65
Rp66
(lp67
F0.9819322816277576
aF-0.061687653901871975
aF0.020434579709654895
aF-0.17772466234453452
abababag3
(g4
g5
Ntp68
Rp69
(lp70
g3
(g9
g5
Ntp71
Rp72
(lp73
I602525
ag3
(g13
g5
Ntp74
Rp75
(lp76
I1440024250
aI469786610
abaS'/two_remote_center_link'
p77
abag3
(g18
g5
Ntp78
Rp79
(lp80
g3
(g22
g5
Ntp81
Rp82
(lp83
F0.10374638933596636
aF0.02621193318268189
aF-0.16092657904474053
abag3
(g26
g5
Ntp84
Rp85
(lp86
F0.9815692680176474
aF-0.03730973963716824
aF0.011989620086753201
aF-0.18704546084222942
abababag3
(g4
g5
Ntp87
Rp88
(lp89
g3
(g9
g5
Ntp90
Rp91
(lp92
I612646
ag3
(g13
g5
Ntp93
Rp94
(lp95
I1440024271
aI311858374
abaS'/two_remote_center_link'
p96
abag3
(g18
g5
Ntp97
Rp98
(lp99
g3
(g22
g5
Ntp100
Rp101
(lp102
F0.09508254339415487
aF0.02577540066275264
aF-0.16005567015930527
abag3
(g26
g5
Ntp103
Rp104
(lp105
F0.9814682382351192
aF-0.040428097843471233
aF0.028387948180839447
aF-0.18514802358786336
abababag3
(g4
g5
Ntp106
Rp107
(lp108
g3
(g9
g5
Ntp109
Rp110
(lp111
I622993
ag3
(g13
g5
Ntp112
Rp113
(lp114
I1440024292
aI632002220
abaS'/two_remote_center_link'
p115
abag3
(g18
g5
Ntp116
Rp117
(lp118
g3
(g22
g5
Ntp119
Rp120
(lp121
F0.08229625420518279
aF0.023232677759792285
aF-0.15800135530279039
abag3
(g26
g5
Ntp122
Rp123
(lp124
F0.9868678278553644
aF-0.04765767462167194
aF0.02287308207126957
aF-0.15263505007124248
abababag3
(g4
g5
Ntp125
Rp126
(lp127
g3
(g9
g5
Ntp128
Rp129
(lp130
I636993
ag3
(g13
g5
Ntp131
Rp132
(lp133
I1440024321
aI473301886
abaS'/two_remote_center_link'
p134
abag3
(g18
g5
Ntp135
Rp136
(lp137
g3
(g22
g5
Ntp138
Rp139
(lp140
F0.10577098777321589
aF0.03875183511305443
aF-0.15838293319963864
abag3
(g26
g5
Ntp141
Rp142
(lp143
F0.987211037608503
aF-0.017749651313622824
aF0.033501910599435775
aF-0.1548448871883572
abababag3
(g4
g5
Ntp144
Rp145
(lp146
g3
(g9
g5
Ntp147
Rp148
(lp149
I643125
ag3
(g13
g5
Ntp150
Rp151
(lp152
I1440024334
aI102554944
abaS'/two_remote_center_link'
p153
abag3
(g18
g5
Ntp154
Rp155
(lp156
g3
(g22
g5
Ntp157
Rp158
(lp159
F0.09218718928328291
aF0.037050101167057266
aF-0.15845823151797161
abag3
(g26
g5
Ntp160
Rp161
(lp162
F0.9862559153562253
aF-0.023424470184230165
aF0.006197161448405247
aF-0.16343854750769446
abababag3
(g4
g5
Ntp163
Rp164
(lp165
g3
(g9
g5
Ntp166
Rp167
(lp168
I650496
ag3
(g13
g5
Ntp169
Rp170
(lp171
I1440024349
aI285286518
abaS'/two_remote_center_link'
p172
abag3
(g18
g5
Ntp173
Rp174
(lp175
g3
(g22
g5
Ntp176
Rp177
(lp178
F0.0798656256267272
aF0.034344088668334216
aF-0.15681812710409468
abag3
(g26
g5
Ntp179
Rp180
(lp181
F0.9887237480457834
aF-0.030676932093878964
aF-0.006708196155064747
aF-0.1464215694218274
abababaa.